; Function Attrs: nounwind sspstrong uwtable
define internal i64 @range_dumper(i64 noundef %0) #0 {
  %2 = load i64, ptr @rb_cObject, align 8, !tbaa !7
  %3 = tail call i64 @rb_obj_alloc(i64 noundef %2) #13
  %4 = load i64, ptr @id_excl, align 8, !tbaa !7
  %5 = inttoptr i64 %0 to ptr
  %6 = load i64, ptr %5, align 8, !tbaa !11
  %7 = and i64 %6, 1040384
  %.not.i.i.i = icmp eq i64 %7, 0
  br i1 %.not.i.i.i, label %10, label %8

8:                                                ; preds = %1
  %9 = getelementptr inbounds nuw i8, ptr %5, i64 16
  br label %RANGE_EXCL.exit

10:                                               ; preds = %1
  %11 = getelementptr inbounds nuw i8, ptr %5, i64 24
  %12 = load ptr, ptr %11, align 8, !tbaa !13
  br label %RANGE_EXCL.exit

RANGE_EXCL.exit:                                  ; preds = %8, %10
  %.0.i.i.i = phi ptr [ %9, %8 ], [ %12, %10 ]
  %13 = getelementptr i8, ptr %.0.i.i.i, i64 16
  %14 = load i64, ptr %13, align 8, !tbaa !7
  %15 = tail call i64 @rb_ivar_set(i64 noundef %3, i64 noundef %4, i64 noundef %14) #13
  %16 = load i64, ptr @id_beg, align 8, !tbaa !7
  %17 = getelementptr inbounds nuw i8, ptr %5, i64 16
  %18 = load i64, ptr %17, align 8, !tbaa !13
  %19 = tail call i64 @rb_ivar_set(i64 noundef %3, i64 noundef %16, i64 noundef %18) #13
  %20 = load i64, ptr @id_end, align 8, !tbaa !7
  %21 = load i64, ptr %5, align 8, !tbaa !11
  %22 = and i64 %21, 1040384
  %.not.i.i.i7 = icmp eq i64 %22, 0
  br i1 %.not.i.i.i7, label %23, label %RANGE_END.exit

23:                                               ; preds = %RANGE_EXCL.exit
  %24 = getelementptr inbounds nuw i8, ptr %5, i64 24
  %25 = load ptr, ptr %24, align 8, !tbaa !13
  br label %RANGE_END.exit

RANGE_END.exit:                                   ; preds = %RANGE_EXCL.exit, %23
  %.0.i.i.i8 = phi ptr [ %25, %23 ], [ %17, %RANGE_EXCL.exit ]
  %26 = getelementptr i8, ptr %.0.i.i.i8, i64 8
  %27 = load i64, ptr %26, align 8, !tbaa !7
  %28 = tail call i64 @rb_ivar_set(i64 noundef %3, i64 noundef %20, i64 noundef %27) #13
  ret i64 %3
}